; Function Attrs: nounwind uwtable
define dso_local noundef i32 @errtableconstraint(ptr noundef readonly captures(none) %0, ptr noundef %1) local_unnamed_addr #0 {
  %3 = getelementptr inbounds nuw i8, ptr %0, i64 56
  %4 = load ptr, ptr %3, align 8
  %5 = getelementptr inbounds nuw i8, ptr %4, i64 68
  %6 = load i32, ptr %5, align 4
  %7 = tail call ptr @get_namespace_name(i32 noundef %6) #13
  %8 = tail call i32 @err_generic_string(i32 noundef 115, ptr noundef %7) #13
  %9 = load ptr, ptr %3, align 8
  %10 = getelementptr inbounds nuw i8, ptr %9, i64 4
  %11 = tail call i32 @err_generic_string(i32 noundef 116, ptr noundef nonnull %10) #13
  %12 = tail call i32 @err_generic_string(i32 noundef 110, ptr noundef %1) #13
  ret i32 0
}